target datalayout = "e-m:e-p270:32:32-p271:32:32-p272:64:64-i64:64-i128:128-f80:128-n8:16:32:64-S128"
target triple = "x86_64-pc-linux-gnu"

%struct.mbedtls_ccm_context = type { [16 x i8], [16 x i8], i64, i64, i64, i64, i32, i32, %struct.mbedtls_cipher_context_t, i32 }
%struct.mbedtls_cipher_context_t = type { ptr, i32, i32, ptr, ptr, [16 x i8], i64, [16 x i8], i64, ptr, ptr }
%struct.mbedtls_cipher_info_t = type { ptr, i32 }

; Function Attrs: inlinehint nounwind uwtable
define internal i64 @mbedtls_cipher_info_get_block_size(ptr noundef %0) #4 {
  %2 = alloca i64, align 8
  %3 = alloca ptr, align 8
  store ptr %0, ptr %3, align 8, !tbaa !12
  %4 = load ptr, ptr %3, align 8, !tbaa !12
  %5 = icmp eq ptr %4, null
  br i1 %5, label %6, label %7

6:                                                ; preds = %1
  store i64 0, ptr %2, align 8
  br label %13

7:                                                ; preds = %1
  %8 = load ptr, ptr %3, align 8, !tbaa !12
  %9 = getelementptr inbounds nuw %struct.mbedtls_cipher_info_t, ptr %8, i32 0, i32 1
  %10 = load i32, ptr %9, align 8
  %11 = and i32 %10, 31
  %12 = zext i32 %11 to i64
  store i64 %12, ptr %2, align 8
  br label %13

13:                                               ; preds = %7, %6
  %14 = load i64, ptr %2, align 8
  ret i64 %14
}

; Function Attrs: nounwind uwtable
define hidden i32 @mbedtls_ccm_setkey(ptr noundef %0, i32 noundef %1, ptr noundef %2, i32 noundef %3) #0 {
  %5 = alloca i32, align 4
  %6 = alloca ptr, align 8
  %7 = alloca i32, align 4
  %8 = alloca ptr, align 8
  %9 = alloca i32, align 4
  %10 = alloca i32, align 4
  %11 = alloca ptr, align 8
  %12 = alloca i32, align 4
  store ptr %0, ptr %6, align 8, !tbaa !3
  store i32 %1, ptr %7, align 4, !tbaa !8
  store ptr %2, ptr %8, align 8, !tbaa !10
  store i32 %3, ptr %9, align 4, !tbaa !8
  call void @llvm.lifetime.start.p0(i64 4, ptr %10) #8
  store i32 -110, ptr %10, align 4, !tbaa !8
  call void @llvm.lifetime.start.p0(i64 8, ptr %11) #8
  %13 = load i32, ptr %7, align 4, !tbaa !8
  %14 = load i32, ptr %9, align 4, !tbaa !8
  %15 = call ptr @mbedtls_cipher_info_from_values(i32 noundef %13, i32 noundef %14, i32 noundef 1)
  store ptr %15, ptr %11, align 8, !tbaa !12
  %16 = load ptr, ptr %11, align 8, !tbaa !12
  %17 = icmp eq ptr %16, null
  br i1 %17, label %18, label %19

18:                                               ; preds = %4
  store i32 -13, ptr %5, align 4
  store i32 1, ptr %12, align 4
  br label %45

19:                                               ; preds = %4
  %20 = load ptr, ptr %11, align 8, !tbaa !12
  %21 = call i64 @mbedtls_cipher_info_get_block_size(ptr noundef %20)
  %22 = icmp ne i64 %21, 16
  br i1 %22, label %23, label %24

23:                                               ; preds = %19
  store i32 -13, ptr %5, align 4
  store i32 1, ptr %12, align 4
  br label %45

24:                                               ; preds = %19
  %25 = load ptr, ptr %6, align 8, !tbaa !3
  %26 = getelementptr inbounds nuw %struct.mbedtls_ccm_context, ptr %25, i32 0, i32 8
  call void @mbedtls_cipher_free(ptr noundef %26)
  %27 = load ptr, ptr %6, align 8, !tbaa !3
  %28 = getelementptr inbounds nuw %struct.mbedtls_ccm_context, ptr %27, i32 0, i32 8
  %29 = load ptr, ptr %11, align 8, !tbaa !12
  %30 = call i32 @mbedtls_cipher_setup(ptr noundef %28, ptr noundef %29)
  store i32 %30, ptr %10, align 4, !tbaa !8
  %31 = icmp ne i32 %30, 0
  br i1 %31, label %32, label %34

32:                                               ; preds = %24
  %33 = load i32, ptr %10, align 4, !tbaa !8
  store i32 %33, ptr %5, align 4
  store i32 1, ptr %12, align 4
  br label %45

34:                                               ; preds = %24
  %35 = load ptr, ptr %6, align 8, !tbaa !3
  %36 = getelementptr inbounds nuw %struct.mbedtls_ccm_context, ptr %35, i32 0, i32 8
  %37 = load ptr, ptr %8, align 8, !tbaa !10
  %38 = load i32, ptr %9, align 4, !tbaa !8
  %39 = call i32 @mbedtls_cipher_setkey(ptr noundef %36, ptr noundef %37, i32 noundef %38, i32 noundef 1)
  store i32 %39, ptr %10, align 4, !tbaa !8
  %40 = icmp ne i32 %39, 0
  br i1 %40, label %41, label %43

41:                                               ; preds = %34
  %42 = load i32, ptr %10, align 4, !tbaa !8
  store i32 %42, ptr %5, align 4
  store i32 1, ptr %12, align 4
  br label %45

43:                                               ; preds = %34
  %44 = load i32, ptr %10, align 4, !tbaa !8
  store i32 %44, ptr %5, align 4
  store i32 1, ptr %12, align 4
  br label %45

45:                                               ; preds = %43, %41, %32, %23, %18
  call void @llvm.lifetime.end.p0(i64 8, ptr %11) #8
  call void @llvm.lifetime.end.p0(i64 4, ptr %10) #8
  %46 = load i32, ptr %5, align 4
  ret i32 %46
}