; Function Attrs: nounwind uwtable
define hidden i32 @mbedtls_ccm_setkey(ptr noundef %0, i32 noundef %1, ptr noundef %2, i32 noundef %3) local_unnamed_addr #2 {
  %5 = tail call ptr @mbedtls_cipher_info_from_values(i32 noundef %1, i32 noundef %3, i32 noundef 1) #10
  %6 = icmp eq ptr %5, null
  br i1 %6, label %15, label %7

7:                                                ; preds = %4
  %8 = getelementptr i8, ptr %5, i64 8
  %.val = load i32, ptr %8, align 8
  %9 = and i32 %.val, 31
  %.not = icmp eq i32 %9, 16
  br i1 %.not, label %10, label %15

10:                                               ; preds = %7
  %11 = getelementptr inbounds nuw i8, ptr %0, i64 72
  tail call void @mbedtls_cipher_free(ptr noundef nonnull %11) #10
  %12 = tail call i32 @mbedtls_cipher_setup(ptr noundef nonnull %11, ptr noundef nonnull %5) #10
  %.not16 = icmp eq i32 %12, 0
  br i1 %.not16, label %13, label %15

13:                                               ; preds = %10
  %14 = tail call i32 @mbedtls_cipher_setkey(ptr noundef nonnull %11, ptr noundef %2, i32 noundef %3, i32 noundef 1) #10
  br label %15

15:                                               ; preds = %13, %10, %7, %4
  %.0 = phi i32 [ -13, %4 ], [ -13, %7 ], [ %12, %10 ], [ %14, %13 ]
  ret i32 %.0
}